target datalayout = "e-m:e-p270:32:32-p271:32:32-p272:64:64-i64:64-i128:128-f80:128-n8:16:32:64-S128"
target triple = "x86_64-pc-linux-gnu"

%struct.Texture = type { i32, i32, i32, i32, i32 }
%struct.Rectangle = type { float, float, float, float }
%struct.Color = type { i8, i8, i8, i8 }
%struct.Vector2 = type { float, float }

@texShapes = internal global %struct.Texture { i32 1, i32 1, i32 1, i32 1, i32 7 }, align 4
@texShapesRec = internal global %struct.Rectangle { float 0.000000e+00, float 0.000000e+00, float 1.000000e+00, float 1.000000e+00 }, align 4

; Function Attrs: nounwind uwtable
define { <2 x float>, <2 x float> } @GetShapesTextureRectangle() #2 {
  %1 = alloca %struct.Rectangle, align 4
  call void @llvm.memcpy.p0.p0.i64(ptr align 4 %1, ptr align 4 @texShapesRec, i64 16, i1 false)
  %2 = load { <2 x float>, <2 x float> }, ptr %1, align 4
  ret { <2 x float>, <2 x float> } %2
}

; Function Attrs: nounwind uwtable
define void @GetShapesTexture(ptr dead_on_unwind noalias writable sret(%struct.Texture) align 4 %0) #2 {
  call void @llvm.memcpy.p0.p0.i64(ptr align 4 %0, ptr align 4 @texShapes, i64 20, i1 false)
  ret void
}

; Function Attrs: nounwind uwtable
define void @DrawPolyLinesEx(<2 x float> %0, i32 noundef %1, float noundef %2, float noundef %3, float noundef %4, i32 %5) #0 {
  %7 = alloca %struct.Vector2, align 4
  %8 = alloca %struct.Color, align 1
  %9 = alloca i32, align 4
  %10 = alloca float, align 4
  %11 = alloca float, align 4
  %12 = alloca float, align 4
  %13 = alloca float, align 4
  %14 = alloca float, align 4
  %15 = alloca float, align 4
  %16 = alloca %struct.Texture, align 4
  %17 = alloca %struct.Rectangle, align 4
  %18 = alloca i32, align 4
  %19 = alloca float, align 4
  store <2 x float> %0, ptr %7, align 4
  store i32 %5, ptr %8, align 1
  store i32 %1, ptr %9, align 4
  store float %2, ptr %10, align 4
  store float %3, ptr %11, align 4
  store float %4, ptr %12, align 4
  %20 = load i32, ptr %9, align 4
  %21 = icmp slt i32 %20, 3
  br i1 %21, label %22, label %23

22:                                               ; preds = %6
  store i32 3, ptr %9, align 4
  br label %23

23:                                               ; preds = %22, %6
  call void @llvm.lifetime.start.p0(i64 4, ptr %13) #8
  %24 = load float, ptr %11, align 4
  %25 = fmul float %24, 0x3F91DF46A0000000
  store float %25, ptr %13, align 4
  call void @llvm.lifetime.start.p0(i64 4, ptr %14) #8
  %26 = load i32, ptr %9, align 4
  %27 = sitofp i32 %26 to float
  %28 = fdiv float 3.600000e+02, %27
  %29 = fmul float %28, 0x3F91DF46A0000000
  store float %29, ptr %14, align 4
  call void @llvm.lifetime.start.p0(i64 4, ptr %15) #8
  %30 = load float, ptr %10, align 4
  %31 = load float, ptr %12, align 4
  %32 = load float, ptr %14, align 4
  %33 = fmul float 0x3F91DF46A0000000, %32
  %34 = fdiv float %33, 2.000000e+00
  %35 = call float @cosf(float noundef %34) #8
  %36 = fneg float %31
  %37 = call float @llvm.fmuladd.f32(float %36, float %35, float %30)
  store float %37, ptr %15, align 4
  call void @GetShapesTexture(ptr dead_on_unwind writable sret(%struct.Texture) align 4 %16)
  %38 = getelementptr inbounds nuw %struct.Texture, ptr %16, i32 0, i32 0
  %39 = load i32, ptr %38, align 4
  call void @rlSetTexture(i32 noundef %39)
  call void @llvm.lifetime.start.p0(i64 16, ptr %17) #8
  %40 = call { <2 x float>, <2 x float> } @GetShapesTextureRectangle()
  %41 = getelementptr inbounds nuw { <2 x float>, <2 x float> }, ptr %17, i32 0, i32 0
  %42 = extractvalue { <2 x float>, <2 x float> } %40, 0
  store <2 x float> %42, ptr %41, align 4
  %43 = getelementptr inbounds nuw { <2 x float>, <2 x float> }, ptr %17, i32 0, i32 1
  %44 = extractvalue { <2 x float>, <2 x float> } %40, 1
  store <2 x float> %44, ptr %43, align 4
  call void @rlBegin(i32 noundef 7)
  call void @llvm.lifetime.start.p0(i64 4, ptr %18) #8
  store i32 0, ptr %18, align 4
  br label %45

45:                                               ; preds = %163, %23
  %46 = load i32, ptr %18, align 4
  %47 = load i32, ptr %9, align 4
  %48 = icmp slt i32 %46, %47
  br i1 %48, label %50, label %49

49:                                               ; preds = %45
  call void @llvm.lifetime.end.p0(i64 4, ptr %18) #8
  br label %166

50:                                               ; preds = %45
  %51 = getelementptr inbounds nuw %struct.Color, ptr %8, i32 0, i32 0
  %52 = load i8, ptr %51, align 1
  %53 = getelementptr inbounds nuw %struct.Color, ptr %8, i32 0, i32 1
  %54 = load i8, ptr %53, align 1
  %55 = getelementptr inbounds nuw %struct.Color, ptr %8, i32 0, i32 2
  %56 = load i8, ptr %55, align 1
  %57 = getelementptr inbounds nuw %struct.Color, ptr %8, i32 0, i32 3
  %58 = load i8, ptr %57, align 1
  call void @rlColor4ub(i8 noundef zeroext %52, i8 noundef zeroext %54, i8 noundef zeroext %56, i8 noundef zeroext %58)
  call void @llvm.lifetime.start.p0(i64 4, ptr %19) #8
  %59 = load float, ptr %13, align 4
  %60 = load float, ptr %14, align 4
  %61 = fadd float %59, %60
  store float %61, ptr %19, align 4
  %62 = getelementptr inbounds nuw %struct.Rectangle, ptr %17, i32 0, i32 0
  %63 = load float, ptr %62, align 4
  %64 = load i32, ptr getelementptr inbounds nuw (%struct.Texture, ptr @texShapes, i32 0, i32 1), align 4
  %65 = sitofp i32 %64 to float
  %66 = fdiv float %63, %65
  %67 = getelementptr inbounds nuw %struct.Rectangle, ptr %17, i32 0, i32 1
  %68 = load float, ptr %67, align 4
  %69 = getelementptr inbounds nuw %struct.Rectangle, ptr %17, i32 0, i32 3
  %70 = load float, ptr %69, align 4
  %71 = fadd float %68, %70
  %72 = load i32, ptr getelementptr inbounds nuw (%struct.Texture, ptr @texShapes, i32 0, i32 2), align 4
  %73 = sitofp i32 %72 to float
  %74 = fdiv float %71, %73
  call void @rlTexCoord2f(float noundef %66, float noundef %74)
  %75 = getelementptr inbounds nuw %struct.Vector2, ptr %7, i32 0, i32 0
  %76 = load float, ptr %75, align 4
  %77 = load float, ptr %13, align 4
  %78 = call float @cosf(float noundef %77) #8
  %79 = load float, ptr %10, align 4
  %80 = call float @llvm.fmuladd.f32(float %78, float %79, float %76)
  %81 = getelementptr inbounds nuw %struct.Vector2, ptr %7, i32 0, i32 1
  %82 = load float, ptr %81, align 4
  %83 = load float, ptr %13, align 4
  %84 = call float @sinf(float noundef %83) #8
  %85 = load float, ptr %10, align 4
  %86 = call float @llvm.fmuladd.f32(float %84, float %85, float %82)
  call void @rlVertex2f(float noundef %80, float noundef %86)
  %87 = getelementptr inbounds nuw %struct.Rectangle, ptr %17, i32 0, i32 0
  %88 = load float, ptr %87, align 4
  %89 = load i32, ptr getelementptr inbounds nuw (%struct.Texture, ptr @texShapes, i32 0, i32 1), align 4
  %90 = sitofp i32 %89 to float
  %91 = fdiv float %88, %90
  %92 = getelementptr inbounds nuw %struct.Rectangle, ptr %17, i32 0, i32 1
  %93 = load float, ptr %92, align 4
  %94 = load i32, ptr getelementptr inbounds nuw (%struct.Texture, ptr @texShapes, i32 0, i32 2), align 4
  %95 = sitofp i32 %94 to float
  %96 = fdiv float %93, %95
  call void @rlTexCoord2f(float noundef %91, float noundef %96)
  %97 = getelementptr inbounds nuw %struct.Vector2, ptr %7, i32 0, i32 0
  %98 = load float, ptr %97, align 4
  %99 = load float, ptr %13, align 4
  %100 = call float @cosf(float noundef %99) #8
  %101 = load float, ptr %15, align 4
  %102 = call float @llvm.fmuladd.f32(float %100, float %101, float %98)
  %103 = getelementptr inbounds nuw %struct.Vector2, ptr %7, i32 0, i32 1
  %104 = load float, ptr %103, align 4
  %105 = load float, ptr %13, align 4
  %106 = call float @sinf(float noundef %105) #8
  %107 = load float, ptr %15, align 4
  %108 = call float @llvm.fmuladd.f32(float %106, float %107, float %104)
  call void @rlVertex2f(float noundef %102, float noundef %108)
  %109 = getelementptr inbounds nuw %struct.Rectangle, ptr %17, i32 0, i32 0
  %110 = load float, ptr %109, align 4
  %111 = getelementptr inbounds nuw %struct.Rectangle, ptr %17, i32 0, i32 2
  %112 = load float, ptr %111, align 4
  %113 = fadd float %110, %112
  %114 = load i32, ptr getelementptr inbounds nuw (%struct.Texture, ptr @texShapes, i32 0, i32 1), align 4
  %115 = sitofp i32 %114 to float
  %116 = fdiv float %113, %115
  %117 = getelementptr inbounds nuw %struct.Rectangle, ptr %17, i32 0, i32 1
  %118 = load float, ptr %117, align 4
  %119 = getelementptr inbounds nuw %struct.Rectangle, ptr %17, i32 0, i32 3
  %120 = load float, ptr %119, align 4
  %121 = fadd float %118, %120
  %122 = load i32, ptr getelementptr inbounds nuw (%struct.Texture, ptr @texShapes, i32 0, i32 2), align 4
  %123 = sitofp i32 %122 to float
  %124 = fdiv float %121, %123
  call void @rlTexCoord2f(float noundef %116, float noundef %124)
  %125 = getelementptr inbounds nuw %struct.Vector2, ptr %7, i32 0, i32 0
  %126 = load float, ptr %125, align 4
  %127 = load float, ptr %19, align 4
  %128 = call float @cosf(float noundef %127) #8
  %129 = load float, ptr %15, align 4
  %130 = call float @llvm.fmuladd.f32(float %128, float %129, float %126)
  %131 = getelementptr inbounds nuw %struct.Vector2, ptr %7, i32 0, i32 1
  %132 = load float, ptr %131, align 4
  %133 = load float, ptr %19, align 4
  %134 = call float @sinf(float noundef %133) #8
  %135 = load float, ptr %15, align 4
  %136 = call float @llvm.fmuladd.f32(float %134, float %135, float %132)
  call void @rlVertex2f(float noundef %130, float noundef %136)
  %137 = getelementptr inbounds nuw %struct.Rectangle, ptr %17, i32 0, i32 0
  %138 = load float, ptr %137, align 4
  %139 = getelementptr inbounds nuw %struct.Rectangle, ptr %17, i32 0, i32 2
  %140 = load float, ptr %139, align 4
  %141 = fadd float %138, %140
  %142 = load i32, ptr getelementptr inbounds nuw (%struct.Texture, ptr @texShapes, i32 0, i32 1), align 4
  %143 = sitofp i32 %142 to float
  %144 = fdiv float %141, %143
  %145 = getelementptr inbounds nuw %struct.Rectangle, ptr %17, i32 0, i32 1
  %146 = load float, ptr %145, align 4
  %147 = load i32, ptr getelementptr inbounds nuw (%struct.Texture, ptr @texShapes, i32 0, i32 2), align 4
  %148 = sitofp i32 %147 to float
  %149 = fdiv float %146, %148
  call void @rlTexCoord2f(float noundef %144, float noundef %149)
  %150 = getelementptr inbounds nuw %struct.Vector2, ptr %7, i32 0, i32 0
  %151 = load float, ptr %150, align 4
  %152 = load float, ptr %19, align 4
  %153 = call float @cosf(float noundef %152) #8
  %154 = load float, ptr %10, align 4
  %155 = call float @llvm.fmuladd.f32(float %153, float %154, float %151)
  %156 = getelementptr inbounds nuw %struct.Vector2, ptr %7, i32 0, i32 1
  %157 = load float, ptr %156, align 4
  %158 = load float, ptr %19, align 4
  %159 = call float @sinf(float noundef %158) #8
  %160 = load float, ptr %10, align 4
  %161 = call float @llvm.fmuladd.f32(float %159, float %160, float %157)
  call void @rlVertex2f(float noundef %155, float noundef %161)
  %162 = load float, ptr %19, align 4
  store float %162, ptr %13, align 4
  call void @llvm.lifetime.end.p0(i64 4, ptr %19) #8
  br label %163

163:                                              ; preds = %50
  %164 = load i32, ptr %18, align 4
  %165 = add nsw i32 %164, 1
  store i32 %165, ptr %18, align 4
  br label %45

166:                                              ; preds = %49
  call void @rlEnd()
  call void @rlSetTexture(i32 noundef 0)
  call void @llvm.lifetime.end.p0(i64 16, ptr %17) #8
  call void @llvm.lifetime.end.p0(i64 4, ptr %15) #8
  call void @llvm.lifetime.end.p0(i64 4, ptr %14) #8
  call void @llvm.lifetime.end.p0(i64 4, ptr %13) #8
  ret void
}