; Function Attrs: nounwind uwtable
define void @DrawPolyLinesEx(<2 x float> %0, i32 noundef %1, float noundef %2, float noundef %3, float noundef %4, i32 %5) local_unnamed_addr #4 {
  %.sroa.043.0.extract.trunc = trunc i32 %5 to i8
  %.sroa.2.0.extract.shift = lshr i32 %5, 8
  %.sroa.2.0.extract.trunc = trunc i32 %.sroa.2.0.extract.shift to i8
  %.sroa.3.0.extract.shift = lshr i32 %5, 16
  %.sroa.3.0.extract.trunc = trunc i32 %.sroa.3.0.extract.shift to i8
  %.sroa.4.0.extract.shift = lshr i32 %5, 24
  %.sroa.4.0.extract.trunc = trunc nuw i32 %.sroa.4.0.extract.shift to i8
  %spec.store.select = tail call i32 @llvm.smax.i32(i32 %1, i32 3)
  %7 = fmul float %3, 0x3F91DF46A0000000
  %8 = uitofp nneg i32 %spec.store.select to float
  %9 = fdiv float 3.600000e+02, %8
  %10 = fmul float %9, 0x3F91DF46A0000000
  %11 = fmul float %10, 0x3F91DF46A0000000
  %12 = fmul float %11, 5.000000e-01
  %13 = tail call float @cosf(float noundef %12) #16
  %14 = fneg float %4
  %15 = tail call float @llvm.fmuladd.f32(float %14, float %13, float %2)
  %.sroa.0.0.copyload = load i32, ptr @texShapes, align 4
  tail call void @rlSetTexture(i32 noundef %.sroa.0.0.copyload) #16
  %.sroa.0.0.copyload.i = load <2 x float>, ptr @texShapesRec, align 8
  %.sroa.2.0.copyload.i = load <2 x float>, ptr getelementptr inbounds nuw (i8, ptr @texShapesRec, i64 8), align 8
  tail call void @rlBegin(i32 noundef 7) #16
  %.sroa.0.0.vec.extract = extractelement <2 x float> %.sroa.0.0.copyload.i, i64 0
  %.sroa.0.4.vec.extract = extractelement <2 x float> %.sroa.0.0.copyload.i, i64 1
  %16 = fadd <2 x float> %.sroa.0.0.copyload.i, %.sroa.2.0.copyload.i
  %17 = extractelement <2 x float> %16, i64 1
  %.sroa.044.0.vec.extract = extractelement <2 x float> %0, i64 0
  %.sroa.044.4.vec.extract = extractelement <2 x float> %0, i64 1
  %18 = fadd <2 x float> %.sroa.0.0.copyload.i, %.sroa.2.0.copyload.i
  %19 = extractelement <2 x float> %18, i64 0
  br label %21

20:                                               ; preds = %21
  tail call void @rlEnd() #16
  tail call void @rlSetTexture(i32 noundef 0) #16
  ret void

21:                                               ; preds = %6, %21
  %.059 = phi i32 [ 0, %6 ], [ %63, %21 ]
  %.05758 = phi float [ %7, %6 ], [ %22, %21 ]
  tail call void @rlColor4ub(i8 noundef zeroext %.sroa.043.0.extract.trunc, i8 noundef zeroext %.sroa.2.0.extract.trunc, i8 noundef zeroext %.sroa.3.0.extract.trunc, i8 noundef zeroext %.sroa.4.0.extract.trunc) #16
  %22 = fadd float %10, %.05758
  %23 = load i32, ptr getelementptr inbounds nuw (i8, ptr @texShapes, i64 4), align 4
  %24 = sitofp i32 %23 to float
  %25 = fdiv float %.sroa.0.0.vec.extract, %24
  %26 = load i32, ptr getelementptr inbounds nuw (i8, ptr @texShapes, i64 8), align 4
  %27 = sitofp i32 %26 to float
  %28 = fdiv float %17, %27
  tail call void @rlTexCoord2f(float noundef %25, float noundef %28) #16
  %29 = tail call float @cosf(float noundef %.05758) #16
  %30 = tail call float @llvm.fmuladd.f32(float %29, float %2, float %.sroa.044.0.vec.extract)
  %31 = tail call float @sinf(float noundef %.05758) #16
  %32 = tail call float @llvm.fmuladd.f32(float %31, float %2, float %.sroa.044.4.vec.extract)
  tail call void @rlVertex2f(float noundef %30, float noundef %32) #16
  %33 = load i32, ptr getelementptr inbounds nuw (i8, ptr @texShapes, i64 4), align 4
  %34 = sitofp i32 %33 to float
  %35 = fdiv float %.sroa.0.0.vec.extract, %34
  %36 = load i32, ptr getelementptr inbounds nuw (i8, ptr @texShapes, i64 8), align 4
  %37 = sitofp i32 %36 to float
  %38 = fdiv float %.sroa.0.4.vec.extract, %37
  tail call void @rlTexCoord2f(float noundef %35, float noundef %38) #16
  %39 = tail call float @cosf(float noundef %.05758) #16
  %40 = tail call float @llvm.fmuladd.f32(float %39, float %15, float %.sroa.044.0.vec.extract)
  %41 = tail call float @sinf(float noundef %.05758) #16
  %42 = tail call float @llvm.fmuladd.f32(float %41, float %15, float %.sroa.044.4.vec.extract)
  tail call void @rlVertex2f(float noundef %40, float noundef %42) #16
  %43 = load i32, ptr getelementptr inbounds nuw (i8, ptr @texShapes, i64 4), align 4
  %44 = sitofp i32 %43 to float
  %45 = fdiv float %19, %44
  %46 = load i32, ptr getelementptr inbounds nuw (i8, ptr @texShapes, i64 8), align 4
  %47 = sitofp i32 %46 to float
  %48 = fdiv float %17, %47
  tail call void @rlTexCoord2f(float noundef %45, float noundef %48) #16
  %49 = tail call float @cosf(float noundef %22) #16
  %50 = tail call float @llvm.fmuladd.f32(float %49, float %15, float %.sroa.044.0.vec.extract)
  %51 = tail call float @sinf(float noundef %22) #16
  %52 = tail call float @llvm.fmuladd.f32(float %51, float %15, float %.sroa.044.4.vec.extract)
  tail call void @rlVertex2f(float noundef %50, float noundef %52) #16
  %53 = load i32, ptr getelementptr inbounds nuw (i8, ptr @texShapes, i64 4), align 4
  %54 = sitofp i32 %53 to float
  %55 = fdiv float %19, %54
  %56 = load i32, ptr getelementptr inbounds nuw (i8, ptr @texShapes, i64 8), align 4
  %57 = sitofp i32 %56 to float
  %58 = fdiv float %.sroa.0.4.vec.extract, %57
  tail call void @rlTexCoord2f(float noundef %55, float noundef %58) #16
  %59 = tail call float @cosf(float noundef %22) #16
  %60 = tail call float @llvm.fmuladd.f32(float %59, float %2, float %.sroa.044.0.vec.extract)
  %61 = tail call float @sinf(float noundef %22) #16
  %62 = tail call float @llvm.fmuladd.f32(float %61, float %2, float %.sroa.044.4.vec.extract)
  tail call void @rlVertex2f(float noundef %60, float noundef %62) #16
  %63 = add nuw nsw i32 %.059, 1
  %exitcond.not = icmp eq i32 %63, %spec.store.select
  br i1 %exitcond.not, label %20, label %21
}